; Function Attrs: nounwind uwtable
define zeroext range(i8 0, 2) i8 @l_Std_Time_Nanosecond_instOrdinalDecidableEq(ptr noundef %0, ptr noundef %1) local_unnamed_addr #0 {
  %3 = ptrtoint ptr %0 to i64
  %4 = ptrtoint ptr %1 to i64
  %5 = and i64 %3, 1
  %6 = and i64 %5, %4
  %or.cond.not.i.i = icmp eq i64 %6, 0
  br i1 %or.cond.not.i.i, label %.critedge.i.i, label %7, !prof !4

7:                                                ; preds = %2
  %8 = icmp eq ptr %0, %1
  br label %lean_int_dec_eq.exit

.critedge.i.i:                                    ; preds = %2
  %9 = tail call zeroext i1 @lean_int_big_eq(ptr noundef %0, ptr noundef %1) #3
  br label %lean_int_dec_eq.exit

lean_int_dec_eq.exit:                             ; preds = %7, %.critedge.i.i
  %.0.i.i = phi i1 [ %8, %7 ], [ %9, %.critedge.i.i ]
  %10 = zext i1 %.0.i.i to i8
  ret i8 %10
}